target datalayout = "e-m:e-p270:32:32-p271:32:32-p272:64:64-i64:64-i128:128-f80:128-n8:16:32:64-S128"
target triple = "x86_64-pc-linux-gnu"

%struct.loopargs_st = type { ptr, ptr, ptr, ptr, ptr, ptr, ptr, [16 x i8], i64, i64, i64, [7 x ptr], [7 x ptr], [7 x ptr], [7 x ptr], [2 x ptr], [2 x ptr], [22 x ptr], [22 x ptr], [24 x ptr], [2 x ptr], [2 x ptr], [1 x ptr], [1 x ptr], [1 x ptr], ptr, ptr, [24 x i64], [5 x ptr], ptr, ptr, ptr, ptr, [111 x ptr], [111 x ptr], [111 x ptr], [111 x i64], [111 x i64], [111 x ptr], [111 x ptr], [111 x ptr], [111 x ptr], [111 x ptr], [111 x ptr], [111 x i64], [111 x i64], [111 x ptr] }

@testmode = internal global i32 0, align 4
@testnum = internal global i32 0, align 4
@run = internal global i32 0, align 4

; Function Attrs: nounwind uwtable
define internal i32 @SIG_keygen_loop(ptr noundef %0) #0 {
  %2 = alloca ptr, align 8
  %3 = alloca ptr, align 8
  %4 = alloca ptr, align 8
  %5 = alloca ptr, align 8
  %6 = alloca i32, align 4
  store ptr %0, ptr %2, align 8, !tbaa !115
  call void @llvm.lifetime.start.p0(i64 8, ptr %3) #11
  %7 = load ptr, ptr %2, align 8, !tbaa !115
  %8 = load ptr, ptr %7, align 8, !tbaa !37
  store ptr %8, ptr %3, align 8, !tbaa !37
  call void @llvm.lifetime.start.p0(i64 8, ptr %4) #11
  %9 = load ptr, ptr %3, align 8, !tbaa !37
  %10 = getelementptr inbounds nuw %struct.loopargs_st, ptr %9, i32 0, i32 41
  %11 = load i32, ptr @testnum, align 4, !tbaa !4
  %12 = zext i32 %11 to i64
  %13 = getelementptr inbounds nuw [111 x ptr], ptr %10, i64 0, i64 %12
  %14 = load ptr, ptr %13, align 8, !tbaa !27
  store ptr %14, ptr %4, align 8, !tbaa !27
  call void @llvm.lifetime.start.p0(i64 8, ptr %5) #11
  store ptr null, ptr %5, align 8, !tbaa !8
  call void @llvm.lifetime.start.p0(i64 4, ptr %6) #11
  store i32 0, ptr %6, align 4, !tbaa !4
  br label %15

15:                                               ; preds = %30, %1
  %16 = load volatile i32, ptr @run, align 4, !tbaa !4
  %17 = icmp ne i32 %16, 0
  br i1 %17, label %18, label %24

18:                                               ; preds = %15
  %19 = load i32, ptr %6, align 4, !tbaa !4
  %20 = load i32, ptr @testmode, align 4, !tbaa !4
  %21 = icmp ne i32 %20, 0
  %22 = select i1 %21, i32 1, i32 2147483647
  %23 = icmp slt i32 %19, %22
  br label %24

24:                                               ; preds = %18, %15
  %25 = phi i1 [ false, %15 ], [ %23, %18 ]
  br i1 %25, label %26, label %33

26:                                               ; preds = %24
  %27 = load ptr, ptr %4, align 8, !tbaa !27
  %28 = call i32 @EVP_PKEY_keygen(ptr noundef %27, ptr noundef %5)
  %29 = load ptr, ptr %5, align 8, !tbaa !8
  call void @EVP_PKEY_free(ptr noundef %29)
  store ptr null, ptr %5, align 8, !tbaa !8
  br label %30

30:                                               ; preds = %26
  %31 = load i32, ptr %6, align 4, !tbaa !4
  %32 = add nsw i32 %31, 1
  store i32 %32, ptr %6, align 4, !tbaa !4
  br label %15, !llvm.loop !297

33:                                               ; preds = %24
  %34 = load i32, ptr %6, align 4, !tbaa !4
  call void @llvm.lifetime.end.p0(i64 4, ptr %6) #11
  call void @llvm.lifetime.end.p0(i64 8, ptr %5) #11
  call void @llvm.lifetime.end.p0(i64 8, ptr %4) #11
  call void @llvm.lifetime.end.p0(i64 8, ptr %3) #11
  ret i32 %34
}