; Function Attrs: nounwind uwtable
define internal range(i32 0, -2147483648) i32 @SIG_keygen_loop(ptr noundef readonly captures(none) %0) #0 {
  %2 = alloca ptr, align 8
  %3 = load ptr, ptr %0, align 8, !tbaa !189
  %4 = getelementptr inbounds nuw i8, ptr %3, i64 8336
  %5 = load i32, ptr @testnum, align 4, !tbaa !13
  %6 = zext i32 %5 to i64
  %7 = getelementptr inbounds nuw [111 x ptr], ptr %4, i64 0, i64 %6
  %8 = load ptr, ptr %7, align 8, !tbaa !15
  call void @llvm.lifetime.start.p0(i64 8, ptr nonnull %2) #14
  store ptr null, ptr %2, align 8, !tbaa !4
  %9 = load volatile i32, ptr @run, align 4, !tbaa !13
  %.not5 = icmp eq i32 %9, 0
  br i1 %.not5, label %.critedge, label %.lr.ph

.lr.ph:                                           ; preds = %1, %12
  %.06 = phi i32 [ %15, %12 ], [ 0, %1 ]
  %.b = load i1, ptr @testmode, align 4
  %10 = select i1 %.b, i32 1, i32 2147483647
  %11 = icmp samesign ult i32 %.06, %10
  br i1 %11, label %12, label %.critedge

12:                                               ; preds = %.lr.ph
  %13 = call i32 @EVP_PKEY_keygen(ptr noundef %8, ptr noundef nonnull %2) #14
  %14 = load ptr, ptr %2, align 8, !tbaa !4
  call void @EVP_PKEY_free(ptr noundef %14) #14
  store ptr null, ptr %2, align 8, !tbaa !4
  %15 = add nuw nsw i32 %.06, 1
  %16 = load volatile i32, ptr @run, align 4, !tbaa !13
  %.not = icmp eq i32 %16, 0
  br i1 %.not, label %.critedge, label %.lr.ph, !llvm.loop !234

.critedge:                                        ; preds = %.lr.ph, %12, %1
  %.0.lcssa = phi i32 [ 0, %1 ], [ %15, %12 ], [ %.06, %.lr.ph ]
  call void @llvm.lifetime.end.p0(i64 8, ptr nonnull %2) #14
  ret i32 %.0.lcssa
}